; Function Attrs: nounwind uwtable
define i32 @Gia_ManBoxCiNum(ptr noundef readonly captures(none) %0) local_unnamed_addr #0 {
  %2 = getelementptr inbounds nuw i8, ptr %0, i64 736
  %3 = load ptr, ptr %2, align 8, !tbaa !3
  %.not = icmp eq ptr %3, null
  br i1 %.not, label %9, label %4

4:                                                ; preds = %1
  %5 = getelementptr i8, ptr %0, i64 64
  %.val = load ptr, ptr %5, align 8, !tbaa !30
  %6 = getelementptr i8, ptr %.val, i64 4
  %.val.val = load i32, ptr %6, align 4, !tbaa !29
  %7 = tail call i32 @Tim_ManPiNum(ptr noundef nonnull %3) #20
  %8 = sub nsw i32 %.val.val, %7
  br label %9

9:                                                ; preds = %1, %4
  %10 = phi i32 [ %8, %4 ], [ 0, %1 ]
  ret i32 %10
}